#include <math.h>
#include <stdio.h>
#include <stdlib.h>
#include <string.h>

void main()
{
	int i,j,max,n;
	char num[300],b[300];
	scanf("%d",&n);
    for(i=0;i<n;i++)
		scanf("%d",&num[i]);
	for(i=1;i<n;i++)
	{
		for(j=1;j<=i;j++)
		{
		if(num[i]==num[i-j])b[i]=1;
       
		}

	}
	for(i=0;i<n;i++)
	{
		if(b[i]!=1)max=i;
	}
	for(i=0;i<n;i++)
	{
		if(b[i]!=1)
{
			if(i<max)printf("%d,",num[i]);
			else if(i=max)printf("%d",num[i]);
		}
	}
}